ARM GAS  C:\Users\imads\AppData\Local\Temp\ccGwPzUY.s 			page 1


   1              		.syntax unified
   2              		.cpu cortex-m3
   3              		.fpu softvfp
   4              		.eabi_attribute 20, 1
   5              		.eabi_attribute 21, 1
   6              		.eabi_attribute 23, 3
   7              		.eabi_attribute 24, 1
   8              		.eabi_attribute 25, 1
   9              		.eabi_attribute 26, 1
  10              		.eabi_attribute 30, 1
  11              		.eabi_attribute 34, 1
  12              		.eabi_attribute 18, 4
  13              		.thumb
  14              		.syntax unified
  15              		.file	"main.c"
  16              		.text
  17              	.Ltext0:
  18              		.cfi_sections	.debug_frame
  19              		.section	.text.isr_uart_Handler,"ax",%progbits
  20              		.align	2
  21              		.global	isr_uart_Handler
  22              		.thumb
  23              		.thumb_func
  24              		.type	isr_uart_Handler, %function
  25              	isr_uart_Handler:
  26              	.LFB63:
  27              		.file 1 "main.c"
   1:main.c        **** /* ========================================
   2:main.c        ****  *
   3:main.c        ****  * Copyright YOUR COMPANY, THE YEAR
   4:main.c        ****  * All Rights Reserved
   5:main.c        ****  * UNPUBLISHED, LICENSED SOFTWARE.
   6:main.c        ****  *
   7:main.c        ****  * CONFIDENTIAL AND PROPRIETARY INFORMATION
   8:main.c        ****  * WHICH IS THE PROPERTY OF your company.
   9:main.c        ****  *
  10:main.c        ****  * ========================================
  11:main.c        **** */
  12:main.c        **** #include "project.h"
  13:main.c        **** 
  14:main.c        **** 
  15:main.c        **** uint8 rxData;
  16:main.c        **** 
  17:main.c        **** CY_ISR(isr_uart_Handler){
  28              		.loc 1 17 0
  29              		.cfi_startproc
  30              		@ args = 0, pretend = 0, frame = 0
  31              		@ frame_needed = 0, uses_anonymous_args = 0
  32 0000 38B5     		push	{r3, r4, r5, lr}
  33              		.cfi_def_cfa_offset 16
  34              		.cfi_offset 3, -16
  35              		.cfi_offset 4, -12
  36              		.cfi_offset 5, -8
  37              		.cfi_offset 14, -4
  38              	.L4:
  18:main.c        ****     uint8 status = 0;
  19:main.c        ****     do{
ARM GAS  C:\Users\imads\AppData\Local\Temp\ccGwPzUY.s 			page 2


  20:main.c        ****         // Checks if no UART Rx errors
  21:main.c        ****         status = UART_ReadRxStatus();
  39              		.loc 1 21 0
  40 0002 FFF7FEFF 		bl	UART_ReadRxStatus
  41              	.LVL0:
  42 0006 0446     		mov	r4, r0
  43              	.LVL1:
  22:main.c        ****         if ((status & UART_RX_STS_PAR_ERROR) || (status & UART_RX_STS_STOP_ERROR) || (status & UART
  44              		.loc 1 22 0
  45 0008 10F01E0F 		tst	r0, #30
  46 000c 06D0     		beq	.L2
  23:main.c        ****             // Parity, framing, break or overrun error
  24:main.c        ****             // ... process error
  25:main.c        ****             LCD_Position(1,0);
  47              		.loc 1 25 0
  48 000e 0021     		movs	r1, #0
  49 0010 0120     		movs	r0, #1
  50              	.LVL2:
  51 0012 FFF7FEFF 		bl	LCD_Position
  52              	.LVL3:
  26:main.c        ****             LCD_PrintString("UART err");
  53              		.loc 1 26 0
  54 0016 0F48     		ldr	r0, .L6
  55 0018 FFF7FEFF 		bl	LCD_PrintString
  56              	.LVL4:
  57              	.L2:
  58 001c 04F02004 		and	r4, r4, #32
  27:main.c        ****         }
  28:main.c        ****         // Check that rx buffer is not empty and get rx data
  29:main.c        ****         if ( (status & UART_RX_STS_FIFO_NOTEMPTY) != 0){
  59              		.loc 1 29 0
  60 0020 04F0FF05 		and	r5, r4, #255
  61 0024 9CB1     		cbz	r4, .L3
  30:main.c        ****             rxData = UART_ReadRxData();
  62              		.loc 1 30 0
  63 0026 FFF7FEFF 		bl	UART_ReadRxData
  64              	.LVL5:
  65 002a 0B4C     		ldr	r4, .L6+4
  66 002c 2070     		strb	r0, [r4]
  31:main.c        ****             UART_PutChar(rxData);
  67              		.loc 1 31 0
  68 002e FFF7FEFF 		bl	UART_PutChar
  69              	.LVL6:
  32:main.c        ****             LCD_Position(1,0);
  70              		.loc 1 32 0
  71 0032 0021     		movs	r1, #0
  72 0034 0120     		movs	r0, #1
  73 0036 FFF7FEFF 		bl	LCD_Position
  74              	.LVL7:
  33:main.c        ****             LCD_PrintString("     ");
  75              		.loc 1 33 0
  76 003a 0848     		ldr	r0, .L6+8
  77 003c FFF7FEFF 		bl	LCD_PrintString
  78              	.LVL8:
  34:main.c        ****             LCD_Position(1,0);
  79              		.loc 1 34 0
  80 0040 0021     		movs	r1, #0
ARM GAS  C:\Users\imads\AppData\Local\Temp\ccGwPzUY.s 			page 3


  81 0042 0120     		movs	r0, #1
  82 0044 FFF7FEFF 		bl	LCD_Position
  83              	.LVL9:
  35:main.c        ****             LCD_PutChar(rxData);
  84              		.loc 1 35 0
  85 0048 2078     		ldrb	r0, [r4]	@ zero_extendqisi2
  86 004a FFF7FEFF 		bl	LCD_PutChar
  87              	.LVL10:
  88              	.L3:
  36:main.c        ****             
  37:main.c        ****         }
  38:main.c        ****     }while ((status & UART_RX_STS_FIFO_NOTEMPTY) != 0);
  89              		.loc 1 38 0
  90 004e 002D     		cmp	r5, #0
  91 0050 D7D1     		bne	.L4
  39:main.c        **** }
  92              		.loc 1 39 0
  93 0052 38BD     		pop	{r3, r4, r5, pc}
  94              	.L7:
  95              		.align	2
  96              	.L6:
  97 0054 00000000 		.word	.LC0
  98 0058 00000000 		.word	rxData
  99 005c 0C000000 		.word	.LC1
 100              		.cfi_endproc
 101              	.LFE63:
 102              		.size	isr_uart_Handler, .-isr_uart_Handler
 103              		.global	__aeabi_ui2f
 104              		.global	__aeabi_fdiv
 105              		.global	__aeabi_fadd
 106              		.global	__aeabi_fmul
 107              		.global	__aeabi_f2uiz
 108              		.section	.text.main,"ax",%progbits
 109              		.align	2
 110              		.global	main
 111              		.thumb
 112              		.thumb_func
 113              		.type	main, %function
 114              	main:
 115              	.LFB64:
  40:main.c        **** 
  41:main.c        **** int main(void)
  42:main.c        **** {
 116              		.loc 1 42 0
 117              		.cfi_startproc
 118              		@ args = 0, pretend = 0, frame = 0
 119              		@ frame_needed = 0, uses_anonymous_args = 0
 120 0000 10B5     		push	{r4, lr}
 121              		.cfi_def_cfa_offset 8
 122              		.cfi_offset 4, -8
 123              		.cfi_offset 14, -4
  43:main.c        ****     CyGlobalIntEnable; /* Enable global interrupts. */
 124              		.loc 1 43 0
 125              		.syntax unified
 126              	@ 43 "main.c" 1
 127 0002 62B6     		CPSIE   i
 128              	@ 0 "" 2
ARM GAS  C:\Users\imads\AppData\Local\Temp\ccGwPzUY.s 			page 4


 129              	.LVL11:
  44:main.c        ****     //int32 val_adc = 0;
  45:main.c        ****     uint16_t pwm_period = 48000;
  46:main.c        ****     uint32_t val_CMP;
  47:main.c        ****     uint32_t val_adc;
  48:main.c        ****     
  49:main.c        ****     // Start PWM
  50:main.c        ****    
  51:main.c        ****     PWM_Start();
 130              		.loc 1 51 0
 131              		.thumb
 132              		.syntax unified
 133 0004 FFF7FEFF 		bl	PWM_Start
 134              	.LVL12:
  52:main.c        ****     ADC_StartConvert();
 135              		.loc 1 52 0
 136 0008 FFF7FEFF 		bl	ADC_StartConvert
 137              	.LVL13:
  53:main.c        ****     UART_Start(); //Start the UART
 138              		.loc 1 53 0
 139 000c FFF7FEFF 		bl	UART_Start
 140              	.LVL14:
  54:main.c        ****     
  55:main.c        ****     PWM_WritePeriod(pwm_period);
 141              		.loc 1 55 0
 142 0010 4BF68030 		movw	r0, #48000
 143 0014 FFF7FEFF 		bl	PWM_WritePeriod
 144              	.LVL15:
  56:main.c        ****     PWM_WriteCompare(val_CMP); 
 145              		.loc 1 56 0
 146 0018 0020     		movs	r0, #0
 147 001a FFF7FEFF 		bl	PWM_WriteCompare
 148              	.LVL16:
  57:main.c        ****     isr_uart_StartEx(isr_uart_Handler);
 149              		.loc 1 57 0
 150 001e 1448     		ldr	r0, .L12
 151 0020 FFF7FEFF 		bl	isr_uart_StartEx
 152              	.LVL17:
 153              	.L9:
  58:main.c        ****     
  59:main.c        ****     for(;;)
  60:main.c        ****     {
  61:main.c        ****         /* Place your application code here. */
  62:main.c        ****         if (ADC_IsEndConversion(ADC_RETURN_STATUS)){
 154              		.loc 1 62 0
 155 0024 0120     		movs	r0, #1
 156 0026 FFF7FEFF 		bl	ADC_IsEndConversion
 157              	.LVL18:
 158 002a 0028     		cmp	r0, #0
 159 002c FAD0     		beq	.L9
  63:main.c        ****             val_adc = ADC_GetResult32();
 160              		.loc 1 63 0
 161 002e FFF7FEFF 		bl	ADC_GetResult32
 162              	.LVL19:
  64:main.c        ****             val_CMP = ((val_adc /(float)0xFFFF) + 1 ) * 2400; //Conversion from [0x0000,0xFFFF] to 
 163              		.loc 1 64 0
 164 0032 FFF7FEFF 		bl	__aeabi_ui2f
ARM GAS  C:\Users\imads\AppData\Local\Temp\ccGwPzUY.s 			page 5


 165              	.LVL20:
 166 0036 0F49     		ldr	r1, .L12+4
 167 0038 FFF7FEFF 		bl	__aeabi_fdiv
 168              	.LVL21:
 169 003c 4FF07E51 		mov	r1, #1065353216
 170 0040 FFF7FEFF 		bl	__aeabi_fadd
 171              	.LVL22:
 172 0044 0C49     		ldr	r1, .L12+8
 173 0046 FFF7FEFF 		bl	__aeabi_fmul
 174              	.LVL23:
 175 004a FFF7FEFF 		bl	__aeabi_f2uiz
 176              	.LVL24:
 177 004e 0446     		mov	r4, r0
 178              	.LVL25:
  65:main.c        ****             LCD_Position(0,0);
 179              		.loc 1 65 0
 180 0050 0021     		movs	r1, #0
 181 0052 0846     		mov	r0, r1
 182              	.LVL26:
 183 0054 FFF7FEFF 		bl	LCD_Position
 184              	.LVL27:
  66:main.c        ****             LCD_PrintNumber(val_CMP);
 185              		.loc 1 66 0
 186 0058 A4B2     		uxth	r4, r4
 187              	.LVL28:
 188 005a 2046     		mov	r0, r4
 189 005c FFF7FEFF 		bl	LCD_PrintU32Number
 190              	.LVL29:
  67:main.c        ****             PWM_WriteCompare(val_CMP);
 191              		.loc 1 67 0
 192 0060 2046     		mov	r0, r4
 193 0062 FFF7FEFF 		bl	PWM_WriteCompare
 194              	.LVL30:
  68:main.c        ****             CyDelay(500);
 195              		.loc 1 68 0
 196 0066 4FF4FA70 		mov	r0, #500
 197 006a FFF7FEFF 		bl	CyDelay
 198              	.LVL31:
 199 006e D9E7     		b	.L9
 200              	.L13:
 201              		.align	2
 202              	.L12:
 203 0070 00000000 		.word	isr_uart_Handler
 204 0074 00FF7F47 		.word	1199570688
 205 0078 00001645 		.word	1159069696
 206              		.cfi_endproc
 207              	.LFE64:
 208              		.size	main, .-main
 209              		.comm	rxData,1,1
 210              		.section	.rodata.str1.4,"aMS",%progbits,1
 211              		.align	2
 212              	.LC0:
 213 0000 55415254 		.ascii	"UART err\000"
 213      20657272 
 213      00
 214 0009 000000   		.space	3
 215              	.LC1:
ARM GAS  C:\Users\imads\AppData\Local\Temp\ccGwPzUY.s 			page 6


 216 000c 20202020 		.ascii	"     \000"
 216      2000
 217              		.text
 218              	.Letext0:
 219              		.file 2 "c:\\program files (x86)\\cypress\\psoc creator\\4.4\\psoc creator\\import\\gnu\\arm\\5.4.
 220              		.file 3 "c:\\program files (x86)\\cypress\\psoc creator\\4.4\\psoc creator\\import\\gnu\\arm\\5.4.
 221              		.file 4 "Generated_Source\\PSoC5/cytypes.h"
 222              		.file 5 "Generated_Source\\PSoC5/core_cm3.h"
 223              		.file 6 "Generated_Source\\PSoC5/UART.h"
 224              		.file 7 "Generated_Source\\PSoC5/LCD.h"
 225              		.file 8 "Generated_Source\\PSoC5/PWM.h"
 226              		.file 9 "Generated_Source\\PSoC5/ADC.h"
 227              		.file 10 "Generated_Source\\PSoC5/isr_uart.h"
 228              		.file 11 "Generated_Source\\PSoC5/CyLib.h"